target datalayout = "e-m:e-p270:32:32-p271:32:32-p272:64:64-i64:64-i128:128-f80:128-n8:16:32:64-S128"
target triple = "x86_64-pc-linux-gnu"

%struct.__va_list_tag = type { i32, i32, ptr, ptr }

@ripper_compile_error.rbimpl_id = internal global i64 0, align 8
@.str = private unnamed_addr constant [14 x i8] c"compile_error\00", align 1

; Function Attrs: inlinehint nounwind sspstrong willreturn memory(read) uwtable
define internal i64 @rb_intern_const(ptr noundef nonnull %0) #5 {
  %2 = alloca ptr, align 8
  %3 = alloca i64, align 8
  store ptr %0, ptr %2, align 8, !tbaa !11
  call void @llvm.lifetime.start.p0(i64 8, ptr %3) #16
  %4 = load ptr, ptr %2, align 8, !tbaa !11
  %5 = call i64 @strlen(ptr noundef %4) #18
  store i64 %5, ptr %3, align 8, !tbaa !13
  %6 = load ptr, ptr %2, align 8, !tbaa !11
  %7 = load i64, ptr %3, align 8, !tbaa !13
  %8 = call i64 @rb_intern2(ptr noundef %6, i64 noundef %7)
  call void @llvm.lifetime.end.p0(i64 8, ptr %3) #16
  ret i64 %8
}

; Function Attrs: inlinehint nounwind sspstrong memory(argmem: readwrite, inaccessiblemem: readwrite) uwtable
define internal i64 @rbimpl_intern_const(ptr noundef nonnull %0, ptr noundef nonnull %1) #4 {
  %3 = alloca ptr, align 8
  %4 = alloca ptr, align 8
  store ptr %0, ptr %3, align 8, !tbaa !15
  store ptr %1, ptr %4, align 8, !tbaa !11
  br label %5

5:                                                ; preds = %10, %2
  %6 = load ptr, ptr %3, align 8, !tbaa !15
  %7 = load i64, ptr %6, align 8, !tbaa !13
  %8 = icmp ne i64 %7, 0
  %9 = xor i1 %8, true
  br i1 %9, label %10, label %14

10:                                               ; preds = %5
  %11 = load ptr, ptr %4, align 8, !tbaa !11
  %12 = call i64 @rb_intern_const(ptr noundef %11) #18
  %13 = load ptr, ptr %3, align 8, !tbaa !15
  store i64 %12, ptr %13, align 8, !tbaa !13
  br label %5, !llvm.loop !17

14:                                               ; preds = %5
  %15 = load ptr, ptr %3, align 8, !tbaa !15
  %16 = load i64, ptr %15, align 8, !tbaa !13
  ret i64 %16
}

; Function Attrs: nounwind sspstrong uwtable
define void @ripper_compile_error(ptr noundef %0, ptr noundef %1, ...) #0 {
  %3 = alloca ptr, align 8
  %4 = alloca ptr, align 8
  %5 = alloca i64, align 8
  %6 = alloca [1 x %struct.__va_list_tag], align 16
  %7 = alloca i64, align 8
  store ptr %0, ptr %3, align 8, !tbaa !6
  store ptr %1, ptr %4, align 8, !tbaa !11
  call void @llvm.lifetime.start.p0(i64 8, ptr %5) #16
  call void @llvm.lifetime.start.p0(i64 24, ptr %6) #16
  %8 = getelementptr inbounds [1 x %struct.__va_list_tag], ptr %6, i64 0, i64 0
  call void @llvm.va_start.p0(ptr %8)
  %9 = load ptr, ptr %4, align 8, !tbaa !11
  %10 = getelementptr inbounds [1 x %struct.__va_list_tag], ptr %6, i64 0, i64 0
  %11 = call i64 @rb_vsprintf(ptr noundef %9, ptr noundef %10)
  store i64 %11, ptr %5, align 8, !tbaa !13
  %12 = getelementptr inbounds [1 x %struct.__va_list_tag], ptr %6, i64 0, i64 0
  call void @llvm.va_end.p0(ptr %12)
  %13 = load ptr, ptr %3, align 8, !tbaa !6
  %14 = call i64 @ripper_value(ptr noundef %13)
  %15 = call i64 @rbimpl_intern_const(ptr noundef @ripper_compile_error.rbimpl_id, ptr noundef @.str) #17
  store i64 %15, ptr %7, align 8, !tbaa !13
  %16 = load i64, ptr %7, align 8, !tbaa !13
  %17 = load i64, ptr %5, align 8, !tbaa !13
  %18 = call i64 (i64, i64, i32, ...) @rb_funcall(i64 noundef %14, i64 noundef %16, i32 noundef 1, i64 noundef %17)
  %19 = load ptr, ptr %3, align 8, !tbaa !6
  call void @ripper_error(ptr noundef %19)
  call void @llvm.lifetime.end.p0(i64 24, ptr %6) #16
  call void @llvm.lifetime.end.p0(i64 8, ptr %5) #16
  ret void
}