; Function Attrs: nounwind sspstrong uwtable
define void @ripper_compile_error(ptr noundef %0, ptr noundef %1, ...) local_unnamed_addr #0 {
  %3 = alloca [1 x %struct.__va_list_tag], align 16
  call void @llvm.lifetime.start.p0(i64 24, ptr nonnull %3) #5
  call void @llvm.va_start.p0(ptr nonnull %3)
  %4 = call i64 @rb_vsprintf(ptr noundef %1, ptr noundef nonnull %3) #5
  call void @llvm.va_end.p0(ptr nonnull %3)
  %5 = call i64 @ripper_value(ptr noundef %0) #5
  %.pr.i = load i64, ptr @ripper_compile_error.rbimpl_id, align 8, !tbaa !6
  %.not1.i = icmp eq i64 %.pr.i, 0
  br i1 %.not1.i, label %.lr.ph.i, label %rbimpl_intern_const.exit

.lr.ph.i:                                         ; preds = %2, %.lr.ph.i
  %6 = call i64 @rb_intern2(ptr noundef nonnull @.str, i64 noundef 13) #5
  store i64 %6, ptr @ripper_compile_error.rbimpl_id, align 8, !tbaa !6
  %.not.i = icmp eq i64 %6, 0
  br i1 %.not.i, label %.lr.ph.i, label %rbimpl_intern_const.exit, !llvm.loop !10

rbimpl_intern_const.exit:                         ; preds = %.lr.ph.i, %2
  %.lcssa.i = phi i64 [ %.pr.i, %2 ], [ %6, %.lr.ph.i ]
  %7 = call i64 (i64, i64, i32, ...) @rb_funcall(i64 noundef %5, i64 noundef %.lcssa.i, i32 noundef 1, i64 noundef %4) #5
  call void @ripper_error(ptr noundef %0) #5
  call void @llvm.lifetime.end.p0(i64 24, ptr nonnull %3) #5
  ret void
}